target datalayout = "e-m:e-p270:32:32-p271:32:32-p272:64:64-i64:64-i128:128-f80:128-n8:16:32:64-S128"
target triple = "x86_64-pc-linux-gnu"

%"class.absl::Condition" = type { [16 x i8], ptr, ptr }

; Function Attrs: inlinehint mustprogress nounwind uwtable
define linkonce_odr dso_local void @_ZN4absl9Condition13StoreCallbackIPFbPvEEEvT_(ptr noundef nonnull align 8 dereferenceable(32) %0, ptr noundef %1) #1 comdat align 2 {
  %3 = alloca ptr, align 8
  %4 = alloca ptr, align 8
  store ptr %0, ptr %3, align 8, !tbaa !105
  store ptr %1, ptr %4, align 8, !tbaa !4
  %5 = load ptr, ptr %3, align 8
  %6 = getelementptr inbounds nuw %"class.absl::Condition", ptr %5, i32 0, i32 0
  %7 = getelementptr inbounds [16 x i8], ptr %6, i64 0, i64 0
  call void @llvm.memcpy.p0.p0.i64(ptr align 8 %7, ptr align 8 %4, i64 8, i1 false)
  ret void
}

; Function Attrs: mustprogress uwtable
define dso_local void @_ZN4absl9ConditionC2EPKb(ptr noundef nonnull align 8 dereferenceable(32) %0, ptr noundef %1) unnamed_addr #0 align 2 {
  %3 = alloca ptr, align 8
  %4 = alloca ptr, align 8
  %5 = alloca ptr, align 8
  store ptr %0, ptr %3, align 8, !tbaa !105
  store ptr %1, ptr %4, align 8, !tbaa !171
  %6 = load ptr, ptr %3, align 8
  %7 = getelementptr inbounds nuw %"class.absl::Condition", ptr %6, i32 0, i32 0
  store i8 0, ptr %7, align 1, !tbaa !59
  %8 = getelementptr inbounds i8, ptr %7, i64 1
  %9 = getelementptr inbounds i8, ptr %7, i64 16
  br label %10

10:                                               ; preds = %10, %2
  %11 = phi ptr [ %8, %2 ], [ %12, %10 ]
  store i8 0, ptr %11, align 1, !tbaa !59
  %12 = getelementptr inbounds i8, ptr %11, i64 1
  %13 = icmp eq ptr %12, %9
  br i1 %13, label %14, label %10

14:                                               ; preds = %10
  %15 = getelementptr inbounds nuw %"class.absl::Condition", ptr %6, i32 0, i32 1
  store ptr @_ZN4absl9Condition19CallVoidPtrFunctionEPKS0_, ptr %15, align 8, !tbaa !112
  %16 = getelementptr inbounds nuw %"class.absl::Condition", ptr %6, i32 0, i32 2
  %17 = load ptr, ptr %4, align 8, !tbaa !171
  store ptr %17, ptr %16, align 8, !tbaa !170
  call void @llvm.lifetime.start.p0(i64 8, ptr %5) #18
  store ptr @_ZN4abslL11DereferenceEPv, ptr %5, align 8, !tbaa !4
  call void @_ZN4absl9Condition13StoreCallbackIPFbPvEEEvT_(ptr noundef nonnull align 8 dereferenceable(32) %6, ptr noundef @_ZN4abslL11DereferenceEPv)
  call void @llvm.lifetime.end.p0(i64 8, ptr %5) #18
  ret void
}