; Function Attrs: mustprogress nofree norecurse nosync nounwind willreturn memory(argmem: write) uwtable
define dso_local void @_ZN4absl9ConditionC2EPKb(ptr noundef nonnull writeonly align 8 captures(none) dereferenceable(32) initializes((0, 32)) %0, ptr noundef %1) unnamed_addr #14 align 2 {
  %3 = getelementptr inbounds nuw i8, ptr %0, i64 16
  %4 = getelementptr inbounds nuw i8, ptr %0, i64 8
  store i64 0, ptr %4, align 8
  store ptr @_ZN4absl9Condition19CallVoidPtrFunctionEPKS0_, ptr %3, align 8, !tbaa !67
  %5 = getelementptr inbounds nuw i8, ptr %0, i64 24
  store ptr %1, ptr %5, align 8, !tbaa !69
  store ptr @_ZN4abslL11DereferenceEPv, ptr %0, align 8
  ret void
}